; Function Attrs: mustprogress uwtable
define void @_ZN2cv8ximgproc14ContourFitting13frequencyInitEv(ptr noundef nonnull align 8 dereferenceable(136) %0) local_unnamed_addr #3 align 2 personality ptr @__gxx_personality_v0 {
  %2 = getelementptr inbounds nuw i8, ptr %0, i64 8
  %3 = load i32, ptr %2, align 8, !tbaa !12
  %4 = getelementptr inbounds nuw i8, ptr %0, i64 64
  %5 = sext i32 %3 to i64
  %6 = getelementptr inbounds nuw i8, ptr %0, i64 72
  %7 = load ptr, ptr %6, align 8, !tbaa !27
  %8 = load ptr, ptr %4, align 8, !tbaa !28
  %9 = ptrtoint ptr %7 to i64
  %10 = ptrtoint ptr %8 to i64
  %11 = sub i64 %9, %10
  %12 = ashr exact i64 %11, 3
  %13 = icmp ult i64 %12, %5
  br i1 %13, label %14, label %16

14:                                               ; preds = %1
  %15 = sub nuw nsw i64 %5, %12
  tail call void @_ZNSt6vectorIdSaIdEE17_M_default_appendEm(ptr noundef nonnull align 8 dereferenceable(24) %4, i64 noundef %15)
  br label %_ZNSt6vectorIdSaIdEE6resizeEm.exit

16:                                               ; preds = %1
  %17 = icmp ugt i64 %12, %5
  br i1 %17, label %18, label %_ZNSt6vectorIdSaIdEE6resizeEm.exit

18:                                               ; preds = %16
  %19 = getelementptr inbounds nuw double, ptr %8, i64 %5
  %.not.i.i = icmp eq ptr %7, %19
  br i1 %.not.i.i, label %_ZNSt6vectorIdSaIdEE6resizeEm.exit, label %20

20:                                               ; preds = %18
  store ptr %19, ptr %6, align 8, !tbaa !27
  br label %_ZNSt6vectorIdSaIdEE6resizeEm.exit

_ZNSt6vectorIdSaIdEE6resizeEm.exit:               ; preds = %14, %16, %18, %20
  %21 = sdiv i32 %3, 2
  %.not17 = icmp slt i32 %3, -1
  br i1 %.not17, label %_ZNSt6vectorIdSaIdEE6resizeEm.exit..preheader_crit_edge, label %.lr.ph

_ZNSt6vectorIdSaIdEE6resizeEm.exit..preheader_crit_edge: ; preds = %_ZNSt6vectorIdSaIdEE6resizeEm.exit
  %.pre = add nsw i32 %21, 1
  br label %.preheader

.lr.ph:                                           ; preds = %_ZNSt6vectorIdSaIdEE6resizeEm.exit
  %22 = sitofp i32 %3 to double
  %23 = load ptr, ptr %4, align 8, !tbaa !28
  %24 = add nsw i32 %21, 1
  %wide.trip.count = zext i32 %24 to i64
  br label %29

.preheader:                                       ; preds = %29, %_ZNSt6vectorIdSaIdEE6resizeEm.exit..preheader_crit_edge
  %.019.pre-phi = phi i32 [ %.pre, %_ZNSt6vectorIdSaIdEE6resizeEm.exit..preheader_crit_edge ], [ %24, %29 ]
  %25 = icmp slt i32 %.019.pre-phi, %3
  br i1 %25, label %.lr.ph21, label %._crit_edge

.lr.ph21:                                         ; preds = %.preheader
  %26 = sitofp i32 %3 to double
  %27 = load ptr, ptr %4, align 8, !tbaa !28
  %narrow = add nsw i32 %21, 1
  %28 = sext i32 %narrow to i64
  br label %36

29:                                               ; preds = %.lr.ph, %29
  %indvars.iv = phi i64 [ 0, %.lr.ph ], [ %indvars.iv.next, %29 ]
  %30 = trunc nuw nsw i64 %indvars.iv to i32
  %31 = uitofp nneg i32 %30 to float
  %32 = fpext float %31 to double
  %33 = fmul double %32, 0x401921FB54442D18
  %34 = fdiv double %33, %22
  %35 = getelementptr inbounds nuw double, ptr %23, i64 %indvars.iv
  store double %34, ptr %35, align 8, !tbaa !29
  %indvars.iv.next = add nuw nsw i64 %indvars.iv, 1
  %exitcond.not = icmp eq i64 %indvars.iv.next, %wide.trip.count
  br i1 %exitcond.not, label %.preheader, label %29, !llvm.loop !31

._crit_edge:                                      ; preds = %36, %.preheader
  ret void

36:                                               ; preds = %.lr.ph21, %36
  %indvars.iv23 = phi i64 [ %28, %.lr.ph21 ], [ %indvars.iv.next24, %36 ]
  %37 = trunc i64 %indvars.iv23 to i32
  %38 = sub i32 %37, %3
  %39 = sitofp i32 %38 to float
  %40 = fpext float %39 to double
  %41 = fmul double %40, 0x401921FB54442D18
  %42 = fdiv double %41, %26
  %43 = getelementptr inbounds nuw double, ptr %27, i64 %indvars.iv23
  store double %42, ptr %43, align 8, !tbaa !29
  %indvars.iv.next24 = add nsw i64 %indvars.iv23, 1
  %exitcond27.not = icmp eq i64 %indvars.iv.next24, %5
  br i1 %exitcond27.not, label %._crit_edge, label %36, !llvm.loop !33
}